target datalayout = "e-m:e-p270:32:32-p271:32:32-p272:64:64-i64:64-i128:128-f80:128-n8:16:32:64-S128"
target triple = "x86_64-pc-linux-gnu"

%struct._tocEntry = type { ptr, ptr, %struct.CatalogId, i32, i32, i8, ptr, ptr, ptr, ptr, i8, ptr, ptr, ptr, ptr, ptr, ptr, i32, ptr, ptr, ptr, i64, i32, i8, ptr, ptr, i32, ptr, i32, ptr, i32 }
%struct.CatalogId = type { i32, i32 }
%struct.lclTocEntry = type { ptr }

@.str = private unnamed_addr constant [1 x i8] zeroinitializer, align 1

; Function Attrs: nounwind uwtable
define internal void @_WriteExtraToc(ptr noundef %0, ptr noundef %1) #0 {
  %3 = alloca ptr, align 8
  %4 = alloca ptr, align 8
  %5 = alloca ptr, align 8
  store ptr %0, ptr %3, align 8
  store ptr %1, ptr %4, align 8
  call void @llvm.lifetime.start.p0(i64 8, ptr %5) #9
  %6 = load ptr, ptr %4, align 8
  %7 = getelementptr inbounds nuw %struct._tocEntry, ptr %6, i32 0, i32 20
  %8 = load ptr, ptr %7, align 8
  store ptr %8, ptr %5, align 8
  %9 = load ptr, ptr %5, align 8
  %10 = getelementptr inbounds nuw %struct.lclTocEntry, ptr %9, i32 0, i32 0
  %11 = load ptr, ptr %10, align 8
  %12 = icmp ne ptr %11, null
  br i1 %12, label %13, label %19

13:                                               ; preds = %2
  %14 = load ptr, ptr %3, align 8
  %15 = load ptr, ptr %5, align 8
  %16 = getelementptr inbounds nuw %struct.lclTocEntry, ptr %15, i32 0, i32 0
  %17 = load ptr, ptr %16, align 8
  %18 = call i64 @WriteStr(ptr noundef %14, ptr noundef %17)
  br label %22

19:                                               ; preds = %2
  %20 = load ptr, ptr %3, align 8
  %21 = call i64 @WriteStr(ptr noundef %20, ptr noundef @.str)
  br label %22

22:                                               ; preds = %19, %13
  call void @llvm.lifetime.end.p0(i64 8, ptr %5) #9
  ret void
}