; Function Attrs: nounwind uwtable
define internal void @_WriteExtraToc(ptr noundef %0, ptr noundef readonly captures(none) %1) #0 {
  %3 = getelementptr inbounds nuw i8, ptr %1, i64 152
  %4 = load ptr, ptr %3, align 8
  %5 = load ptr, ptr %4, align 8
  %.not = icmp eq ptr %5, null
  %.str. = select i1 %.not, ptr @.str, ptr %5
  %6 = tail call i64 @WriteStr(ptr noundef %0, ptr noundef nonnull %.str.) #14
  ret void
}